Certificate:
    Data:
        Version: 3 (0x2)
        Serial Number: 1 (0x1)
        Signature Algorithm: sha1WithRSAEncryption
        Issuer: C=de, ST=Some-State, O=root, OU=root, CN=root
        Validity
            Not Before: May  2 20:44:05 2012 GMT
            Not After : May  2 20:44:05 2013 GMT
        Subject: C=de, ST=Some-State, O=root, OU=root, CN=client/emailAddress=client
        Subject Public Key Info:
            Public Key Algorithm: rsaEncryption
            RSA Public Key: (1024 bit)
                Modulus (1024 bit):
                    00:e1:82:17:2c:27:00:13:b6:20:0a:be:95:ca:f5:
                    4e:64:9b:27:e3:95:4f:aa:d8:3a:16:aa:ad:4d:53:
                    a9:03:29:98:96:29:ee:03:58:d2:92:f1:83:b0:db:
                    eb:20:31:12:17:da:71:24:4e:af:08:3c:39:21:6b:
                    9c:69:f1:3c:f2:fa:7c:d0:89:6c:04:71:32:81:aa:
                    4a:61:90:0d:a6:3d:ae:b7:11:ba:e2:d8:2c:e3:2a:
                    53:b9:31:28:ed:27:bd:94:0a:c8:45:f4:94:a6:c6:
                    0b:c1:81:50:b2:33:e1:7c:ba:79:33:81:80:8c:c0:
                    dc:50:ec:d4:33:42:d0:44:bf
                Exponent: 65537 (0x10001)
        X509v3 extensions:
            X509v3 Basic Constraints: 
                CA:FALSE
            Netscape Comment: 
                OpenSSL Generated Certificate
            X509v3 Subject Key Identifier: 
                45:B9:20:58:52:36:08:BF:2D:82:7E:FF:64:41:FD:89:9E:FB:9B:EF
            X509v3 Authority Key Identifier: 
                keyid:88:87:1F:13:51:54:D0:5E:1F:1D:45:54:92:86:1E:29:8F:B2:22:AF

    Signature Algorithm: sha1WithRSAEncryption
        8d:bf:80:e8:ea:e5:15:73:90:38:72:6c:43:be:7f:9b:24:ca:
        62:f3:0f:3b:c4:33:50:bf:b0:00:6b:4a:79:d3:1c:33:7a:71:
        cd:89:51:88:91:b0:9b:37:73:1f:19:47:05:ca:e8:4c:b5:c2:
        41:c7:9e:5e:8e:1d:df:56:cc:b0:cc:1a:85:3a:fd:47:0f:bb:
        14:f1:84:05:d7:d5:43:2d:07:05:c7:47:fa:22:6f:84:b3:e4:
        ed:90:dd:1d:c1:94:d7:cd:df:c2:bc:e9:b9:29:d2:59:c0:09:
        fc:34:31:3e:94:14:c5:9a:d2:71:c4:96:15:c2:2a:8a:95:ec:
        3e:fd
-----BEGIN CERTIFICATE-----
MIICqDCCAhGgAwIBAgIBATANBgkqhkiG9w0BAQUFADBPMQswCQYDVQQGEwJkZTET
MBEGA1UECBMKU29tZS1TdGF0ZTENMAsGA1UEChMEcm9vdDENMAsGA1UECxMEcm9v
dDENMAsGA1UEAxMEcm9vdDAeFw0xMjA1MDIyMDQ0MDVaFw0xMzA1MDIyMDQ0MDVa
MGgxCzAJBgNVBAYTAmRlMRMwEQYDVQQIEwpTb21lLVN0YXRlMQ0wCwYDVQQKEwRy
b290MQ0wCwYDVQQLEwRyb290MQ8wDQYDVQQDEwZjbGllbnQxFTATBgkqhkiG9w0B
CQEWBmNsaWVudDCBnzANBgkqhkiG9w0BAQEFAAOBjQAwgYkCgYEA4YIXLCcAE7Yg
Cr6VyvVOZJsn45VPqtg6FqqtTVOpAymYlinuA1jSkvGDsNvrIDESF9pxJE6vCDw5
IWucafE88vp80IlsBHEygapKYZANpj2utxG64tgs4ypTuTEo7Se9lArIRfSUpsYL
wYFQsjPhfLp5M4GAjMDcUOzUM0LQRL8CAwEAAaN7MHkwCQYDVR0TBAIwADAsBglg
hkgBhvhCAQ0EHxYdT3BlblNTTCBHZW5lcmF0ZWQgQ2VydGlmaWNhdGUwHQYDVR0O
BBYEFEW5IFhSNgi/LYJ+/2RB/Yme+5vvMB8GA1UdIwQYMBaAFIiHHxNRVNBeHx1F
VJKGHimPsiKvMA0GCSqGSIb3DQEBBQUAA4GBAI2/gOjq5RVzkDhybEO+f5skymLz
DzvEM1C/sABrSnnTHDN6cc2JUYiRsJs3cx8ZRwXK6Ey1wkHHnl6OHd9WzLDMGoU6
/UcPuxTxhAXX1UMtBwXHR/oib4Sz5O2Q3R3BlNfN38K86bkp0lnACfw0MT6UFMWa
0nHElhXCKoqV7D79
-----END CERTIFICATE-----
